target datalayout = "e-m:e-p270:32:32-p271:32:32-p272:64:64-i64:64-i128:128-f80:128-n8:16:32:64-S128"
target triple = "x86_64-pc-linux-gnu"

%struct.PlatformTarget = type { ptr, i32, ptr, ptr, i32, i32, i32, i32, i32, i32, i32, [7 x %struct.AlignData], [7 x %struct.AlignData], [7 x %struct.AlignData], i32, i16, %union.anon.85, i8, i8, i8, i8, i8, i8, i8, i8, i8, i8, %struct.AlignData, i32, i32, i32, i32, i32, i32, i32, i32, i32, i32, i32, i32, i32, i32, i32, i32, ptr }
%union.anon.85 = type { %struct.anon.87 }
%struct.anon.87 = type { %struct.X86Features, i32, i32 }
%struct.X86Features = type { [2 x i64], ptr }
%struct.AlignData = type { i32, i32 }
%struct.Ast_ = type { %union.SourceSpan, i32, i8, %union.anon.62 }
%union.SourceSpan = type { i64 }
%union.anon.62 = type { %struct.AstDocDirective_ }
%struct.AstDocDirective_ = type { i8, %union.anon.65 }
%union.anon.65 = type { %struct.anon.66 }
%struct.anon.66 = type { ptr, %union.SourceSpan, i8 }
%struct.AstAsmStmt = type { ptr, ptr, ptr }
%struct.AsmInstruction = type { ptr, [6 x %struct.AsmArgType], i32, %struct.Clobbers }
%struct.AsmArgType = type <{ i64, i32 }>
%struct.Clobbers = type { [4 x i64] }
%struct.VHeader_ = type { i32, i32, [0 x i8] }
%struct.AsmInlineBlock = type { %struct.Clobbers, ptr, i32, ptr, ptr }

@platform_target = external global %struct.PlatformTarget, align 8
@.str = private unnamed_addr constant [34 x i8] c"Unsupported architecture for asm.\00", align 1
@.str.1 = private unnamed_addr constant [20 x i8] c"Unknown instruction\00", align 1
@.str.2 = private unnamed_addr constant [51 x i8] c"Too %s arguments to instruction '%s', expected %d.\00", align 1
@.str.3 = private unnamed_addr constant [4 x i8] c"few\00", align 1
@.str.4 = private unnamed_addr constant [5 x i8] c"many\00", align 1

; Function Attrs: nounwind uwtable
define internal void @sema_add_clobbers(ptr noundef %0, ptr noundef %1) #0 {
  %3 = alloca ptr, align 8
  %4 = alloca ptr, align 8
  %5 = alloca i32, align 4
  store ptr %0, ptr %3, align 8
  store ptr %1, ptr %4, align 8
  store i32 0, ptr %5, align 4
  br label %6

6:                                                ; preds = %24, %2
  %7 = load i32, ptr %5, align 4
  %8 = icmp ult i32 %7, 4
  br i1 %8, label %9, label %27

9:                                                ; preds = %6
  %10 = load ptr, ptr %4, align 8
  %11 = getelementptr inbounds %struct.Clobbers, ptr %10, i32 0, i32 0
  %12 = load i32, ptr %5, align 4
  %13 = zext i32 %12 to i64
  %14 = getelementptr inbounds [4 x i64], ptr %11, i64 0, i64 %13
  %15 = load i64, ptr %14, align 8
  %16 = load ptr, ptr %3, align 8
  %17 = getelementptr inbounds %struct.AsmInlineBlock, ptr %16, i32 0, i32 0
  %18 = getelementptr inbounds %struct.Clobbers, ptr %17, i32 0, i32 0
  %19 = load i32, ptr %5, align 4
  %20 = zext i32 %19 to i64
  %21 = getelementptr inbounds [4 x i64], ptr %18, i64 0, i64 %20
  %22 = load i64, ptr %21, align 8
  %23 = or i64 %22, %15
  store i64 %23, ptr %21, align 8
  br label %24

24:                                               ; preds = %9
  %25 = load i32, ptr %5, align 4
  %26 = add i32 %25, 1
  store i32 %26, ptr %5, align 4
  br label %6, !llvm.loop !9

27:                                               ; preds = %6
  ret void
}

; Function Attrs: nounwind uwtable
define dso_local zeroext i1 @sema_analyse_asm(ptr noundef %0, ptr noundef %1, ptr noundef %2) #0 {
  %4 = alloca i32, align 4
  %5 = alloca ptr, align 8
  %6 = alloca ptr, align 8
  %7 = alloca i1, align 1
  %8 = alloca ptr, align 8
  %9 = alloca ptr, align 8
  %10 = alloca ptr, align 8
  %11 = alloca ptr, align 8
  %12 = alloca ptr, align 8
  %13 = alloca i32, align 4
  %14 = alloca i32, align 4
  %15 = alloca i32, align 4
  %16 = alloca { i64, i32 }, align 4
  store ptr %0, ptr %8, align 8
  store ptr %1, ptr %9, align 8
  store ptr %2, ptr %10, align 8
  %17 = load i32, ptr getelementptr inbounds (%struct.PlatformTarget, ptr @platform_target, i32 0, i32 4), align 8
  %18 = icmp ne i32 %17, 32
  br i1 %18, label %19, label %27

19:                                               ; preds = %3
  %20 = load i32, ptr getelementptr inbounds (%struct.PlatformTarget, ptr @platform_target, i32 0, i32 4), align 8
  %21 = icmp ne i32 %20, 3
  br i1 %21, label %22, label %27

22:                                               ; preds = %19
  %23 = load ptr, ptr %10, align 8
  %24 = getelementptr inbounds %struct.Ast_, ptr %23, i32 0, i32 0
  %25 = getelementptr inbounds %union.SourceSpan, ptr %24, i32 0, i32 0
  %26 = load i64, ptr %25, align 8
  call void (i64, ptr, ...) @sema_error_at(i64 %26, ptr noundef @.str)
  store i1 false, ptr %7, align 1
  br label %110

27:                                               ; preds = %19, %3
  call void @init_asm()
  %28 = load ptr, ptr %10, align 8
  %29 = getelementptr inbounds %struct.Ast_, ptr %28, i32 0, i32 3
  %30 = getelementptr inbounds %struct.AstAsmStmt, ptr %29, i32 0, i32 0
  %31 = load ptr, ptr %30, align 8
  %32 = call ptr @asm_instr_by_name(ptr noundef %31)
  store ptr %32, ptr %11, align 8
  %33 = load ptr, ptr %11, align 8
  %34 = icmp ne ptr %33, null
  br i1 %34, label %40, label %35

35:                                               ; preds = %27
  %36 = load ptr, ptr %10, align 8
  %37 = getelementptr inbounds %struct.Ast_, ptr %36, i32 0, i32 0
  %38 = getelementptr inbounds %union.SourceSpan, ptr %37, i32 0, i32 0
  %39 = load i64, ptr %38, align 8
  call void (i64, ptr, ...) @sema_error_at(i64 %39, ptr noundef @.str.1)
  store i1 false, ptr %7, align 1
  br label %110

40:                                               ; preds = %27
  %41 = load ptr, ptr %10, align 8
  %42 = getelementptr inbounds %struct.Ast_, ptr %41, i32 0, i32 3
  %43 = getelementptr inbounds %struct.AstAsmStmt, ptr %42, i32 0, i32 2
  %44 = load ptr, ptr %43, align 8
  store ptr %44, ptr %12, align 8
  %45 = load ptr, ptr %11, align 8
  %46 = getelementptr inbounds %struct.AsmInstruction, ptr %45, i32 0, i32 2
  %47 = load i32, ptr %46, align 8
  store i32 %47, ptr %13, align 4
  %48 = load ptr, ptr %12, align 8
  store ptr %48, ptr %5, align 8
  %49 = load ptr, ptr %5, align 8
  %50 = icmp ne ptr %49, null
  br i1 %50, label %52, label %51

51:                                               ; preds = %40
  store i32 0, ptr %4, align 4
  br label %57

52:                                               ; preds = %40
  %53 = load ptr, ptr %5, align 8
  store ptr %53, ptr %6, align 8
  %54 = load ptr, ptr %6, align 8
  %55 = getelementptr inbounds %struct.VHeader_, ptr %54, i64 -1
  %56 = load i32, ptr %55, align 4
  store i32 %56, ptr %4, align 4
  br label %57

57:                                               ; preds = %52, %51
  %58 = load i32, ptr %4, align 4
  store i32 %58, ptr %14, align 4
  %59 = load i32, ptr %13, align 4
  %60 = load i32, ptr %14, align 4
  %61 = icmp ne i32 %59, %60
  br i1 %61, label %62, label %75

62:                                               ; preds = %57
  %63 = load ptr, ptr %10, align 8
  %64 = getelementptr inbounds %struct.Ast_, ptr %63, i32 0, i32 0
  %65 = load i32, ptr %13, align 4
  %66 = load i32, ptr %14, align 4
  %67 = icmp ugt i32 %65, %66
  %68 = select i1 %67, ptr @.str.3, ptr @.str.4
  %69 = load ptr, ptr %11, align 8
  %70 = getelementptr inbounds %struct.AsmInstruction, ptr %69, i32 0, i32 0
  %71 = load ptr, ptr %70, align 8
  %72 = load i32, ptr %13, align 4
  %73 = getelementptr inbounds %union.SourceSpan, ptr %64, i32 0, i32 0
  %74 = load i64, ptr %73, align 8
  call void (i64, ptr, ...) @sema_error_at(i64 %74, ptr noundef @.str.2, ptr noundef %68, ptr noundef %71, i32 noundef %72)
  store i1 false, ptr %7, align 1
  br label %110

75:                                               ; preds = %57
  %76 = load i32, ptr %14, align 4
  store i32 %76, ptr %15, align 4
  br label %77

77:                                               ; preds = %103, %75
  %78 = load i32, ptr %15, align 4
  %79 = icmp ugt i32 %78, 0
  br i1 %79, label %80, label %106

80:                                               ; preds = %77
  %81 = load ptr, ptr %8, align 8
  %82 = load ptr, ptr %9, align 8
  %83 = load ptr, ptr %11, align 8
  %84 = load ptr, ptr %11, align 8
  %85 = getelementptr inbounds %struct.AsmInstruction, ptr %84, i32 0, i32 1
  %86 = load i32, ptr %15, align 4
  %87 = sub i32 %86, 1
  %88 = zext i32 %87 to i64
  %89 = getelementptr inbounds [6 x %struct.AsmArgType], ptr %85, i64 0, i64 %88
  %90 = load ptr, ptr %12, align 8
  %91 = load i32, ptr %15, align 4
  %92 = sub i32 %91, 1
  %93 = zext i32 %92 to i64
  %94 = getelementptr inbounds ptr, ptr %90, i64 %93
  %95 = load ptr, ptr %94, align 8
  call void @llvm.memcpy.p0.p0.i64(ptr align 4 %16, ptr align 4 %89, i64 12, i1 false)
  %96 = getelementptr inbounds { i64, i32 }, ptr %16, i32 0, i32 0
  %97 = load i64, ptr %96, align 4
  %98 = getelementptr inbounds { i64, i32 }, ptr %16, i32 0, i32 1
  %99 = load i32, ptr %98, align 4
  %100 = call zeroext i1 @sema_check_asm_arg(ptr noundef %81, ptr noundef %82, ptr noundef %83, i64 %97, i32 %99, ptr noundef %95)
  br i1 %100, label %102, label %101

101:                                              ; preds = %80
  store i1 false, ptr %7, align 1
  br label %110

102:                                              ; preds = %80
  br label %103

103:                                              ; preds = %102
  %104 = load i32, ptr %15, align 4
  %105 = add i32 %104, -1
  store i32 %105, ptr %15, align 4
  br label %77, !llvm.loop !7

106:                                              ; preds = %77
  %107 = load ptr, ptr %9, align 8
  %108 = load ptr, ptr %11, align 8
  %109 = getelementptr inbounds %struct.AsmInstruction, ptr %108, i32 0, i32 3
  call void @sema_add_clobbers(ptr noundef %107, ptr noundef %109)
  store i1 true, ptr %7, align 1
  br label %110

110:                                              ; preds = %106, %101, %62, %35, %22
  %111 = load i1, ptr %7, align 1
  ret i1 %111
}