; Function Attrs: nounwind uwtable
define dso_local noundef zeroext i1 @sema_analyse_asm(ptr noundef %0, ptr noundef %1, ptr nocapture noundef readonly %2) local_unnamed_addr #0 {
  %4 = load i32, ptr getelementptr inbounds (%struct.PlatformTarget, ptr @platform_target, i64 0, i32 4), align 8
  switch i32 %4, label %5 [
    i32 32, label %7
    i32 3, label %7
  ]

5:                                                ; preds = %3
  %6 = load i64, ptr %2, align 8
  tail call void (i64, ptr, ...) @sema_error_at(i64 %6, ptr noundef nonnull @.str) #4
  br label %sema_add_clobbers.exit

7:                                                ; preds = %3, %3
  tail call void @init_asm() #4
  %8 = getelementptr inbounds i8, ptr %2, i64 16
  %9 = load ptr, ptr %8, align 8
  %10 = tail call ptr @asm_instr_by_name(ptr noundef %9) #4
  %.not = icmp eq ptr %10, null
  br i1 %.not, label %11, label %13

11:                                               ; preds = %7
  %12 = load i64, ptr %2, align 8
  tail call void (i64, ptr, ...) @sema_error_at(i64 %12, ptr noundef nonnull @.str.1) #4
  br label %sema_add_clobbers.exit

13:                                               ; preds = %7
  %14 = getelementptr inbounds i8, ptr %2, i64 32
  %15 = load ptr, ptr %14, align 8
  %16 = getelementptr inbounds i8, ptr %10, i64 80
  %17 = load i32, ptr %16, align 8
  %.not36 = icmp eq ptr %15, null
  br i1 %.not36, label %21, label %18

18:                                               ; preds = %13
  %19 = getelementptr inbounds i8, ptr %15, i64 -8
  %20 = load i32, ptr %19, align 4
  br label %21

21:                                               ; preds = %13, %18
  %.0 = phi i32 [ %20, %18 ], [ 0, %13 ]
  %.not37 = icmp eq i32 %17, %.0
  br i1 %.not37, label %.preheader, label %24

.preheader:                                       ; preds = %21
  %22 = getelementptr inbounds i8, ptr %10, i64 8
  %23 = zext i32 %17 to i64
  br label %29

24:                                               ; preds = %21
  %25 = icmp ugt i32 %17, %.0
  %26 = select i1 %25, ptr @.str.3, ptr @.str.4
  %27 = load ptr, ptr %10, align 8
  %28 = load i64, ptr %2, align 8
  tail call void (i64, ptr, ...) @sema_error_at(i64 %28, ptr noundef nonnull @.str.2, ptr noundef nonnull %26, ptr noundef %27, i32 noundef %17) #4
  br label %sema_add_clobbers.exit

29:                                               ; preds = %.preheader, %30
  %indvars.iv = phi i64 [ %23, %.preheader ], [ %31, %30 ]
  %.not38 = icmp eq i64 %indvars.iv, 0
  br i1 %.not38, label %36, label %30

30:                                               ; preds = %29
  %31 = add nsw i64 %indvars.iv, -1
  %32 = getelementptr inbounds [6 x %struct.AsmArgType], ptr %22, i64 0, i64 %31
  %33 = getelementptr inbounds ptr, ptr %15, i64 %31
  %34 = load ptr, ptr %33, align 8
  %.sroa.0.0.copyload = load i64, ptr %32, align 4
  %.sroa.2.0..sroa_idx = getelementptr inbounds i8, ptr %32, i64 8
  %.sroa.2.0.copyload = load i32, ptr %.sroa.2.0..sroa_idx, align 4
  %35 = tail call fastcc zeroext i1 @sema_check_asm_arg(ptr noundef %0, ptr noundef %1, ptr noundef nonnull %10, i64 %.sroa.0.0.copyload, i32 %.sroa.2.0.copyload, ptr noundef %34)
  br i1 %35, label %29, label %sema_add_clobbers.exit, !llvm.loop !7

36:                                               ; preds = %29
  %37 = getelementptr inbounds i8, ptr %10, i64 88
  br label %38

38:                                               ; preds = %38, %36
  %indvars.iv.i = phi i64 [ 0, %36 ], [ %indvars.iv.next.i, %38 ]
  %39 = getelementptr inbounds [4 x i64], ptr %37, i64 0, i64 %indvars.iv.i
  %40 = load i64, ptr %39, align 8
  %41 = getelementptr inbounds [4 x i64], ptr %1, i64 0, i64 %indvars.iv.i
  %42 = load i64, ptr %41, align 8
  %43 = or i64 %42, %40
  store i64 %43, ptr %41, align 8
  %indvars.iv.next.i = add nuw nsw i64 %indvars.iv.i, 1
  %exitcond.not.i = icmp eq i64 %indvars.iv.next.i, 4
  br i1 %exitcond.not.i, label %sema_add_clobbers.exit, label %38, !llvm.loop !9

sema_add_clobbers.exit:                           ; preds = %30, %38, %24, %11, %5
  %.031 = phi i1 [ false, %5 ], [ false, %24 ], [ false, %11 ], [ true, %38 ], [ false, %30 ]
  ret i1 %.031
}